; Function Attrs: norecurse nounwind uwtable
define internal void @_ZN5faiss12_GLOBAL__N_120exhaustive_L2sqr_seqINS_22Top1BlockResultHandlerINS_4CMaxIflEEEELb1EEEvPKfS7_mmmRT_PKNS_10IDSelectorE.omp_outlined(ptr noalias nocapture noundef readonly %0, ptr noalias nocapture readnone %1, ptr nocapture noundef nonnull readonly align 8 dereferenceable(48) %2, ptr nocapture noundef nonnull readonly align 8 dereferenceable(8) %3, ptr nocapture noundef nonnull readonly align 8 dereferenceable(8) %4, ptr nocapture noundef nonnull readonly align 8 dereferenceable(8) %5, ptr nocapture noundef nonnull readonly align 8 dereferenceable(8) %6, ptr nocapture noundef nonnull readonly align 8 dereferenceable(8) %7, ptr nocapture noundef nonnull readonly align 8 dereferenceable(8) %8) #1 personality ptr @__gxx_personality_v0 {
  %10 = alloca i64, align 8
  %11 = alloca i64, align 8
  %12 = alloca i64, align 8
  %13 = alloca i32, align 4
  %14 = load i64, ptr %3, align 8
  %.not = icmp eq i64 %14, 0
  %.pre = load i32, ptr %0, align 4
  br i1 %.not, label %53, label %15

15:                                               ; preds = %9
  %16 = add i64 %14, -1
  store i64 0, ptr %10, align 8
  store i64 %16, ptr %11, align 8
  store i64 1, ptr %12, align 8
  store i32 0, ptr %13, align 4
  call void @__kmpc_for_static_init_8u(ptr nonnull @1, i32 %.pre, i32 34, ptr nonnull %13, ptr nonnull %10, ptr nonnull %11, ptr nonnull %12, i64 1, i64 1)
  %17 = load i64, ptr %11, align 8
  %18 = call i64 @llvm.umin.i64(i64 %17, i64 %16)
  store i64 %18, ptr %11, align 8
  %19 = load i64, ptr %10, align 8
  %.not45 = icmp ugt i64 %19, %18
  br i1 %.not45, label %._crit_edge43, label %.lr.ph42

.lr.ph42:                                         ; preds = %15
  %20 = getelementptr inbounds i8, ptr %2, i64 32
  %21 = getelementptr inbounds i8, ptr %2, i64 40
  br label %22

22:                                               ; preds = %.lr.ph42, %._crit_edge
  %.040 = phi i64 [ %19, %.lr.ph42 ], [ %49, %._crit_edge ]
  %23 = load ptr, ptr %4, align 8
  %24 = load i64, ptr %5, align 8
  %25 = mul i64 %24, %.040
  %26 = getelementptr inbounds float, ptr %23, i64 %25
  %27 = load i64, ptr %7, align 8
  %.not44 = icmp eq i64 %27, 0
  br i1 %.not44, label %._crit_edge, label %.lr.ph.preheader

.lr.ph.preheader:                                 ; preds = %22
  %28 = load ptr, ptr %6, align 8
  br label %.lr.ph

.lr.ph:                                           ; preds = %.lr.ph.preheader, %_ZN5faiss22Top1BlockResultHandlerINS_4CMaxIflEEE19SingleResultHandler10add_resultEfl.exit
  %.02838 = phi i64 [ %40, %_ZN5faiss22Top1BlockResultHandlerINS_4CMaxIflEEE19SingleResultHandler10add_resultEfl.exit ], [ 0, %.lr.ph.preheader ]
  %.02937 = phi ptr [ %42, %_ZN5faiss22Top1BlockResultHandlerINS_4CMaxIflEEE19SingleResultHandler10add_resultEfl.exit ], [ %28, %.lr.ph.preheader ]
  %.sroa.1.036 = phi float [ %.sroa.1.2, %_ZN5faiss22Top1BlockResultHandlerINS_4CMaxIflEEE19SingleResultHandler10add_resultEfl.exit ], [ 0x47EFFFFFE0000000, %.lr.ph.preheader ]
  %.sroa.9.035 = phi i64 [ %.sroa.9.2, %_ZN5faiss22Top1BlockResultHandlerINS_4CMaxIflEEE19SingleResultHandler10add_resultEfl.exit ], [ -1, %.lr.ph.preheader ]
  %29 = load ptr, ptr %8, align 8
  %30 = load ptr, ptr %29, align 8
  %31 = load ptr, ptr %30, align 8
  %32 = invoke noundef zeroext i1 %31(ptr noundef nonnull align 8 dereferenceable(8) %29, i64 noundef %.02838)
          to label %33 unwind label %54

33:                                               ; preds = %.lr.ph
  br i1 %32, label %34, label %_ZN5faiss22Top1BlockResultHandlerINS_4CMaxIflEEE19SingleResultHandler10add_resultEfl.exit

34:                                               ; preds = %33
  %35 = load i64, ptr %5, align 8
  %36 = invoke noundef float @_ZN5faiss10fvec_L2sqrEPKfS1_m(ptr noundef %26, ptr noundef %.02937, i64 noundef %35)
          to label %37 unwind label %54

37:                                               ; preds = %34
  %38 = fcmp ogt float %.sroa.1.036, %36
  br i1 %38, label %39, label %_ZN5faiss22Top1BlockResultHandlerINS_4CMaxIflEEE19SingleResultHandler10add_resultEfl.exit

39:                                               ; preds = %37
  br label %_ZN5faiss22Top1BlockResultHandlerINS_4CMaxIflEEE19SingleResultHandler10add_resultEfl.exit

_ZN5faiss22Top1BlockResultHandlerINS_4CMaxIflEEE19SingleResultHandler10add_resultEfl.exit: ; preds = %39, %37, %33
  %.sroa.9.2 = phi i64 [ %.sroa.9.035, %33 ], [ %.02838, %39 ], [ %.sroa.9.035, %37 ]
  %.sroa.1.2 = phi float [ %.sroa.1.036, %33 ], [ %36, %39 ], [ %.sroa.1.036, %37 ]
  %40 = add nuw i64 %.02838, 1
  %41 = load i64, ptr %5, align 8
  %42 = getelementptr inbounds float, ptr %.02937, i64 %41
  %43 = load i64, ptr %7, align 8
  %44 = icmp ult i64 %40, %43
  br i1 %44, label %.lr.ph, label %._crit_edge, !llvm.loop !87

._crit_edge:                                      ; preds = %_ZN5faiss22Top1BlockResultHandlerINS_4CMaxIflEEE19SingleResultHandler10add_resultEfl.exit, %22
  %.sroa.9.0.lcssa = phi i64 [ -1, %22 ], [ %.sroa.9.2, %_ZN5faiss22Top1BlockResultHandlerINS_4CMaxIflEEE19SingleResultHandler10add_resultEfl.exit ]
  %.sroa.1.0.lcssa = phi float [ 0x47EFFFFFE0000000, %22 ], [ %.sroa.1.2, %_ZN5faiss22Top1BlockResultHandlerINS_4CMaxIflEEE19SingleResultHandler10add_resultEfl.exit ]
  %45 = load ptr, ptr %20, align 8
  %46 = getelementptr inbounds float, ptr %45, i64 %.040
  store float %.sroa.1.0.lcssa, ptr %46, align 4
  %47 = load ptr, ptr %21, align 8
  %48 = getelementptr inbounds i64, ptr %47, i64 %.040
  store i64 %.sroa.9.0.lcssa, ptr %48, align 8
  %49 = add nuw i64 %.040, 1
  %50 = load i64, ptr %11, align 8
  %51 = add i64 %50, 1
  %52 = icmp ult i64 %49, %51
  br i1 %52, label %22, label %._crit_edge43

._crit_edge43:                                    ; preds = %._crit_edge, %15
  call void @__kmpc_for_static_fini(ptr nonnull @1, i32 %.pre)
  br label %53

53:                                               ; preds = %._crit_edge43, %9
  call void @__kmpc_barrier(ptr nonnull @3, i32 %.pre)
  ret void

54:                                               ; preds = %34, %.lr.ph
  %55 = landingpad { ptr, i32 }
          catch ptr null
  %56 = extractvalue { ptr, i32 } %55, 0
  call void @__clang_call_terminate(ptr %56) #22
  unreachable
}